; Function Attrs: mustprogress nofree nounwind willreturn memory(write, argmem: readwrite) uwtable
define noundef range(i32 0, 4) i32 @_ZN3g2o8internal4_q2mERdS1_RKdS3_S3_S3_S3_S3_S3_S3_S3_(ptr noundef nonnull writeonly align 8 captures(none) dereferenceable(8) initializes((0, 8)) %0, ptr noundef nonnull writeonly align 8 captures(none) dereferenceable(8) initializes((0, 8)) %1, ptr noundef nonnull readonly align 8 captures(none) dereferenceable(8) %2, ptr noundef nonnull readonly align 8 captures(none) dereferenceable(8) %3, ptr noundef nonnull readonly align 8 captures(none) dereferenceable(8) %4, ptr noundef nonnull readonly align 8 captures(none) dereferenceable(8) %5, ptr noundef nonnull readonly align 8 captures(none) dereferenceable(8) %6, ptr noundef nonnull readonly align 8 captures(none) dereferenceable(8) %7, ptr noundef nonnull readonly align 8 captures(none) dereferenceable(8) %8, ptr noundef nonnull readonly align 8 captures(none) dereferenceable(8) %9, ptr noundef nonnull readonly align 8 captures(none) dereferenceable(8) %10) local_unnamed_addr #4 {
  %12 = load double, ptr %2, align 8, !tbaa !3
  %13 = load double, ptr %6, align 8, !tbaa !3
  %14 = fadd double %12, %13
  %15 = load double, ptr %10, align 8, !tbaa !3
  %16 = fadd double %14, %15
  %17 = fcmp ogt double %16, 0.000000e+00
  br i1 %17, label %18, label %23

18:                                               ; preds = %11
  %19 = fadd double %16, 1.000000e+00
  %20 = tail call double @sqrt(double noundef %19) #10, !tbaa !7
  %21 = fmul double %20, 2.000000e+00
  store double %21, ptr %0, align 8, !tbaa !3
  %22 = fmul double %21, 2.500000e-01
  br label %59

23:                                               ; preds = %11
  %24 = fcmp ogt double %12, %13
  %25 = fcmp ogt double %12, %15
  %26 = and i1 %24, %25
  br i1 %26, label %27, label %37

27:                                               ; preds = %23
  %28 = fadd double %12, 1.000000e+00
  %29 = fsub double %28, %13
  %30 = fsub double %29, %15
  %31 = tail call double @sqrt(double noundef %30) #10, !tbaa !7
  %32 = fmul double %31, 2.000000e+00
  store double %32, ptr %0, align 8, !tbaa !3
  %33 = load double, ptr %7, align 8, !tbaa !3
  %34 = load double, ptr %9, align 8, !tbaa !3
  %35 = fsub double %33, %34
  %36 = fdiv double %35, %32
  br label %59

37:                                               ; preds = %23
  %38 = fcmp ogt double %13, %15
  br i1 %38, label %39, label %49

39:                                               ; preds = %37
  %40 = fadd double %13, 1.000000e+00
  %41 = fsub double %40, %12
  %42 = fsub double %41, %15
  %43 = tail call double @sqrt(double noundef %42) #10, !tbaa !7
  %44 = fmul double %43, 2.000000e+00
  store double %44, ptr %0, align 8, !tbaa !3
  %45 = load double, ptr %8, align 8, !tbaa !3
  %46 = load double, ptr %4, align 8, !tbaa !3
  %47 = fsub double %45, %46
  %48 = fdiv double %47, %44
  br label %59

49:                                               ; preds = %37
  %50 = fadd double %15, 1.000000e+00
  %51 = fsub double %50, %12
  %52 = fsub double %51, %13
  %53 = tail call double @sqrt(double noundef %52) #10, !tbaa !7
  %54 = fmul double %53, 2.000000e+00
  store double %54, ptr %0, align 8, !tbaa !3
  %55 = load double, ptr %3, align 8, !tbaa !3
  %56 = load double, ptr %5, align 8, !tbaa !3
  %57 = fsub double %55, %56
  %58 = fdiv double %57, %54
  br label %59

59:                                               ; preds = %49, %39, %27, %18
  %.sink = phi double [ %58, %49 ], [ %48, %39 ], [ %36, %27 ], [ %22, %18 ]
  %.0 = phi i32 [ 3, %49 ], [ 2, %39 ], [ 1, %27 ], [ 0, %18 ]
  store double %.sink, ptr %1, align 8, !tbaa !3
  ret i32 %.0
}